; Function Attrs: mustprogress uwtable
define noundef i32 @zmq_ctx_set(ptr noundef %0, i32 noundef %1, i32 noundef %2) local_unnamed_addr #1 {
  %4 = alloca i32, align 4
  store i32 %2, ptr %4, align 4, !tbaa !3
  %.not.i = icmp eq ptr %0, null
  br i1 %.not.i, label %7, label %5

5:                                                ; preds = %3
  %6 = tail call noundef zeroext i1 @_ZNK3zmq5ctx_t9check_tagEv(ptr noundef nonnull align 8 dereferenceable(648) %0)
  br i1 %6, label %9, label %7

7:                                                ; preds = %5, %3
  %8 = tail call ptr @__errno_location() #20
  store i32 14, ptr %8, align 4, !tbaa !3
  br label %zmq_ctx_set_ext.exit

9:                                                ; preds = %5
  %10 = call noundef i32 @_ZN3zmq5ctx_t3setEiPKvm(ptr noundef nonnull align 8 dereferenceable(648) %0, i32 noundef %1, ptr noundef nonnull %4, i64 noundef 4)
  br label %zmq_ctx_set_ext.exit

zmq_ctx_set_ext.exit:                             ; preds = %7, %9
  %.0.i = phi i32 [ %10, %9 ], [ -1, %7 ]
  ret i32 %.0.i
}